; ModuleID = '16/220.c'
source_filename = "16/220.c"
target datalayout = "e-m:e-p270:32:32-p271:32:32-p272:64:64-i64:64-f80:128-n8:16:32:64-S128"
target triple = "x86_64-pc-linux-gnu"

@.str = private unnamed_addr constant [3 x i8] c"%d\00", align 1
@.str.1 = private unnamed_addr constant [9 x i8] c"%d%d%d%d\00", align 1
@.str.2 = private unnamed_addr constant [7 x i8] c"%d%d%d\00", align 1
@.str.3 = private unnamed_addr constant [5 x i8] c"%d%d\00", align 1

; Function Attrs: noinline nounwind uwtable
define dso_local i32 @main() #0 {
  %1 = alloca i32, align 4
  %2 = alloca i32, align 4
  %3 = alloca i32, align 4
  %4 = alloca i32, align 4
  %5 = alloca i32, align 4
  %6 = alloca i32, align 4
  store i32 0, i32* %1, align 4
  %7 = call i32 (i8*, ...) @__isoc99_scanf(i8* getelementptr inbounds ([3 x i8], [3 x i8]* @.str, i64 0, i64 0), i32* %2)
  %8 = load i32, i32* %2, align 4
  %9 = sdiv i32 %8, 1000
  store i32 %9, i32* %3, align 4
  %10 = load i32, i32* %2, align 4
  %11 = sdiv i32 %10, 100
  %12 = srem i32 %11, 10
  store i32 %12, i32* %4, align 4
  %13 = load i32, i32* %2, align 4
  %14 = srem i32 %13, 100
  %15 = sdiv i32 %14, 10
  store i32 %15, i32* %5, align 4
  %16 = load i32, i32* %2, align 4
  %17 = srem i32 %16, 10
  store i32 %17, i32* %6, align 4
  %18 = load i32, i32* %2, align 4
  %19 = sdiv i32 %18, 1000
  %20 = icmp ne i32 %19, 0
  br i1 %20, label %21, label %27

21:                                               ; preds = %0
  %22 = load i32, i32* %6, align 4
  %23 = load i32, i32* %5, align 4
  %24 = load i32, i32* %4, align 4
  %25 = load i32, i32* %3, align 4
  %26 = call i32 (i8*, ...) @printf(i8* getelementptr inbounds ([9 x i8], [9 x i8]* @.str.1, i64 0, i64 0), i32 %22, i32 %23, i32 %24, i32 %25)
  br label %49

27:                                               ; preds = %0
  %28 = load i32, i32* %2, align 4
  %29 = sdiv i32 %28, 100
  %30 = icmp ne i32 %29, 0
  br i1 %30, label %31, label %36

31:                                               ; preds = %27
  %32 = load i32, i32* %6, align 4
  %33 = load i32, i32* %5, align 4
  %34 = load i32, i32* %4, align 4
  %35 = call i32 (i8*, ...) @printf(i8* getelementptr inbounds ([7 x i8], [7 x i8]* @.str.2, i64 0, i64 0), i32 %32, i32 %33, i32 %34)
  br label %48

36:                                               ; preds = %27
  %37 = load i32, i32* %2, align 4
  %38 = sdiv i32 %37, 10
  %39 = icmp ne i32 %38, 0
  br i1 %39, label %40, label %44

40:                                               ; preds = %36
  %41 = load i32, i32* %6, align 4
  %42 = load i32, i32* %5, align 4
  %43 = call i32 (i8*, ...) @printf(i8* getelementptr inbounds ([5 x i8], [5 x i8]* @.str.3, i64 0, i64 0), i32 %41, i32 %42)
  br label %47

44:                                               ; preds = %36
  %45 = load i32, i32* %6, align 4
  %46 = call i32 (i8*, ...) @printf(i8* getelementptr inbounds ([3 x i8], [3 x i8]* @.str, i64 0, i64 0), i32 %45)
  br label %47

47:                                               ; preds = %44, %40
  br label %48

48:                                               ; preds = %47, %31
  br label %49

49:                                               ; preds = %48, %21
  ret i32 0
}

declare dso_local i32 @__isoc99_scanf(i8*, ...) #1

declare dso_local i32 @printf(i8*, ...) #1


!llvm.module.flags = !{!0}
!llvm.ident = !{!1}

!0 = !{i32 1, !"wchar_size", i32 4}
!1 = !{!"clang version 10.0.0-4ubuntu1 "}
